
test.out：     文件格式 elf64-x86-64


Disassembly of section .init:

00000000000006b0 <_init>:
 6b0:	48 83 ec 08          	sub    $0x8,%rsp
 6b4:	48 8b 05 2d 19 20 00 	mov    0x20192d(%rip),%rax        # 201fe8 <__gmon_start__>
 6bb:	48 85 c0             	test   %rax,%rax
 6be:	74 02                	je     6c2 <_init+0x12>
 6c0:	ff d0                	callq  *%rax
 6c2:	48 83 c4 08          	add    $0x8,%rsp
 6c6:	c3                   	retq   

Disassembly of section .plt:

00000000000006d0 <.plt>:
 6d0:	ff 35 32 19 20 00    	pushq  0x201932(%rip)        # 202008 <_GLOBAL_OFFSET_TABLE_+0x8>
 6d6:	ff 25 34 19 20 00    	jmpq   *0x201934(%rip)        # 202010 <_GLOBAL_OFFSET_TABLE_+0x10>
 6dc:	0f 1f 40 00          	nopl   0x0(%rax)

00000000000006e0 <putchar@plt>:
 6e0:	ff 25 32 19 20 00    	jmpq   *0x201932(%rip)        # 202018 <putchar@GLIBC_2.2.5>
 6e6:	68 00 00 00 00       	pushq  $0x0
 6eb:	e9 e0 ff ff ff       	jmpq   6d0 <.plt>

00000000000006f0 <printf@plt>:
 6f0:	ff 25 2a 19 20 00    	jmpq   *0x20192a(%rip)        # 202020 <printf@GLIBC_2.2.5>
 6f6:	68 01 00 00 00       	pushq  $0x1
 6fb:	e9 d0 ff ff ff       	jmpq   6d0 <.plt>

0000000000000700 <malloc@plt>:
 700:	ff 25 22 19 20 00    	jmpq   *0x201922(%rip)        # 202028 <malloc@GLIBC_2.2.5>
 706:	68 02 00 00 00       	pushq  $0x2
 70b:	e9 c0 ff ff ff       	jmpq   6d0 <.plt>

0000000000000710 <fflush@plt>:
 710:	ff 25 1a 19 20 00    	jmpq   *0x20191a(%rip)        # 202030 <fflush@GLIBC_2.2.5>
 716:	68 03 00 00 00       	pushq  $0x3
 71b:	e9 b0 ff ff ff       	jmpq   6d0 <.plt>

0000000000000720 <_IO_getc@plt>:
 720:	ff 25 12 19 20 00    	jmpq   *0x201912(%rip)        # 202038 <_IO_getc@GLIBC_2.2.5>
 726:	68 04 00 00 00       	pushq  $0x4
 72b:	e9 a0 ff ff ff       	jmpq   6d0 <.plt>

0000000000000730 <exit@plt>:
 730:	ff 25 0a 19 20 00    	jmpq   *0x20190a(%rip)        # 202040 <exit@GLIBC_2.2.5>
 736:	68 05 00 00 00       	pushq  $0x5
 73b:	e9 90 ff ff ff       	jmpq   6d0 <.plt>

Disassembly of section .plt.got:

0000000000000740 <__cxa_finalize@plt>:
 740:	ff 25 b2 18 20 00    	jmpq   *0x2018b2(%rip)        # 201ff8 <__cxa_finalize@GLIBC_2.2.5>
 746:	66 90                	xchg   %ax,%ax

Disassembly of section .text:

0000000000000750 <_start>:
 750:	31 ed                	xor    %ebp,%ebp
 752:	49 89 d1             	mov    %rdx,%r9
 755:	5e                   	pop    %rsi
 756:	48 89 e2             	mov    %rsp,%rdx
 759:	48 83 e4 f0          	and    $0xfffffffffffffff0,%rsp
 75d:	50                   	push   %rax
 75e:	54                   	push   %rsp
 75f:	4c 8d 05 4a 08 00 00 	lea    0x84a(%rip),%r8        # fb0 <__libc_csu_fini>
 766:	48 8d 0d d3 07 00 00 	lea    0x7d3(%rip),%rcx        # f40 <__libc_csu_init>
 76d:	48 8d 3d d2 04 00 00 	lea    0x4d2(%rip),%rdi        # c46 <main>
 774:	ff 15 66 18 20 00    	callq  *0x201866(%rip)        # 201fe0 <__libc_start_main@GLIBC_2.2.5>
 77a:	f4                   	hlt    
 77b:	0f 1f 44 00 00       	nopl   0x0(%rax,%rax,1)

0000000000000780 <deregister_tm_clones>:
 780:	48 8d 3d d1 18 20 00 	lea    0x2018d1(%rip),%rdi        # 202058 <__TMC_END__>
 787:	55                   	push   %rbp
 788:	48 8d 05 c9 18 20 00 	lea    0x2018c9(%rip),%rax        # 202058 <__TMC_END__>
 78f:	48 39 f8             	cmp    %rdi,%rax
 792:	48 89 e5             	mov    %rsp,%rbp
 795:	74 19                	je     7b0 <deregister_tm_clones+0x30>
 797:	48 8b 05 3a 18 20 00 	mov    0x20183a(%rip),%rax        # 201fd8 <_ITM_deregisterTMCloneTable>
 79e:	48 85 c0             	test   %rax,%rax
 7a1:	74 0d                	je     7b0 <deregister_tm_clones+0x30>
 7a3:	5d                   	pop    %rbp
 7a4:	ff e0                	jmpq   *%rax
 7a6:	66 2e 0f 1f 84 00 00 	nopw   %cs:0x0(%rax,%rax,1)
 7ad:	00 00 00 
 7b0:	5d                   	pop    %rbp
 7b1:	c3                   	retq   
 7b2:	0f 1f 40 00          	nopl   0x0(%rax)
 7b6:	66 2e 0f 1f 84 00 00 	nopw   %cs:0x0(%rax,%rax,1)
 7bd:	00 00 00 

00000000000007c0 <register_tm_clones>:
 7c0:	48 8d 3d 91 18 20 00 	lea    0x201891(%rip),%rdi        # 202058 <__TMC_END__>
 7c7:	48 8d 35 8a 18 20 00 	lea    0x20188a(%rip),%rsi        # 202058 <__TMC_END__>
 7ce:	55                   	push   %rbp
 7cf:	48 29 fe             	sub    %rdi,%rsi
 7d2:	48 89 e5             	mov    %rsp,%rbp
 7d5:	48 c1 fe 03          	sar    $0x3,%rsi
 7d9:	48 89 f0             	mov    %rsi,%rax
 7dc:	48 c1 e8 3f          	shr    $0x3f,%rax
 7e0:	48 01 c6             	add    %rax,%rsi
 7e3:	48 d1 fe             	sar    %rsi
 7e6:	74 18                	je     800 <register_tm_clones+0x40>
 7e8:	48 8b 05 01 18 20 00 	mov    0x201801(%rip),%rax        # 201ff0 <_ITM_registerTMCloneTable>
 7ef:	48 85 c0             	test   %rax,%rax
 7f2:	74 0c                	je     800 <register_tm_clones+0x40>
 7f4:	5d                   	pop    %rbp
 7f5:	ff e0                	jmpq   *%rax
 7f7:	66 0f 1f 84 00 00 00 	nopw   0x0(%rax,%rax,1)
 7fe:	00 00 
 800:	5d                   	pop    %rbp
 801:	c3                   	retq   
 802:	0f 1f 40 00          	nopl   0x0(%rax)
 806:	66 2e 0f 1f 84 00 00 	nopw   %cs:0x0(%rax,%rax,1)
 80d:	00 00 00 

0000000000000810 <__do_global_dtors_aux>:
 810:	80 3d 61 18 20 00 00 	cmpb   $0x0,0x201861(%rip)        # 202078 <completed.7090>
 817:	75 2f                	jne    848 <__do_global_dtors_aux+0x38>
 819:	48 83 3d d7 17 20 00 	cmpq   $0x0,0x2017d7(%rip)        # 201ff8 <__cxa_finalize@GLIBC_2.2.5>
 820:	00 
 821:	55                   	push   %rbp
 822:	48 89 e5             	mov    %rsp,%rbp
 825:	74 0c                	je     833 <__do_global_dtors_aux+0x23>
 827:	48 8b 3d 22 18 20 00 	mov    0x201822(%rip),%rdi        # 202050 <__dso_handle>
 82e:	e8 0d ff ff ff       	callq  740 <__cxa_finalize@plt>
 833:	e8 48 ff ff ff       	callq  780 <deregister_tm_clones>
 838:	c6 05 39 18 20 00 01 	movb   $0x1,0x201839(%rip)        # 202078 <completed.7090>
 83f:	5d                   	pop    %rbp
 840:	c3                   	retq   
 841:	0f 1f 80 00 00 00 00 	nopl   0x0(%rax)
 848:	f3 c3                	repz retq 
 84a:	66 0f 1f 44 00 00    	nopw   0x0(%rax,%rax,1)

0000000000000850 <frame_dummy>:
 850:	55                   	push   %rbp
 851:	48 89 e5             	mov    %rsp,%rbp
 854:	5d                   	pop    %rbp
 855:	e9 66 ff ff ff       	jmpq   7c0 <register_tm_clones>

000000000000085a <tigermain>:
 85a:	48 83 ec 20          	sub    $0x20,%rsp

000000000000085e <L12>:
 85e:	48 c7 c0 10 00 00 00 	mov    $0x10,%rax
 865:	48 89 44 24 18       	mov    %rax,0x18(%rsp)
 86a:	48 8d 44 24 20       	lea    0x20(%rsp),%rax
 86f:	48 83 c0 f0          	add    $0xfffffffffffffff0,%rax
 873:	48 89 44 24 08       	mov    %rax,0x8(%rsp)
 878:	48 c7 c0 00 00 00 00 	mov    $0x0,%rax
 87f:	48 89 04 24          	mov    %rax,(%rsp)
 883:	48 8b 7c 24 18       	mov    0x18(%rsp),%rdi
 888:	48 c7 c6 00 00 00 00 	mov    $0x0,%rsi
 88f:	e8 08 02 00 00       	callq  a9c <initArray>
 894:	48 8b 7c 24 08       	mov    0x8(%rsp),%rdi
 899:	48 89 07             	mov    %rax,(%rdi)
 89c:	48 8d 44 24 20       	lea    0x20(%rsp),%rax
 8a1:	48 89 04 24          	mov    %rax,(%rsp)
 8a5:	e8 07 00 00 00       	callq  8b1 <try>
 8aa:	eb 00                	jmp    8ac <L11>

00000000000008ac <L11>:
 8ac:	48 83 c4 20          	add    $0x20,%rsp
 8b0:	c3                   	retq   

00000000000008b1 <try>:
 8b1:	48 83 ec 08          	sub    $0x8,%rsp

00000000000008b5 <L14>:
 8b5:	48 8b 44 24 10       	mov    0x10(%rsp),%rax
 8ba:	48 89 04 24          	mov    %rax,(%rsp)
 8be:	e8 10 01 00 00       	callq  9d3 <init>
 8c3:	48 8b 44 24 10       	mov    0x10(%rsp),%rax
 8c8:	48 89 04 24          	mov    %rax,(%rsp)
 8cc:	48 c7 c7 00 00 00 00 	mov    $0x0,%rdi
 8d3:	48 8b 44 24 10       	mov    0x10(%rsp),%rax
 8d8:	48 8b 70 f8          	mov    -0x8(%rax),%rsi
 8dc:	48 83 ee 01          	sub    $0x1,%rsi
 8e0:	48 c7 c2 07 00 00 00 	mov    $0x7,%rdx
 8e7:	e8 31 00 00 00       	callq  91d <bsearch>
 8ec:	48 89 c7             	mov    %rax,%rdi
 8ef:	48 c7 c0 00 00 00 00 	mov    $0x0,%rax
 8f6:	48 89 04 24          	mov    %rax,(%rsp)
 8fa:	e8 0d 03 00 00       	callq  c0c <printi>
 8ff:	48 c7 c0 00 00 00 00 	mov    $0x0,%rax
 906:	48 89 04 24          	mov    %rax,(%rsp)
 90a:	48 8d 3d b3 06 00 00 	lea    0x6b3(%rip),%rdi        # fc4 <L10>
 911:	e8 ad 02 00 00       	callq  bc3 <print>
 916:	eb 00                	jmp    918 <L13>

0000000000000918 <L13>:
 918:	48 83 c4 08          	add    $0x8,%rsp
 91c:	c3                   	retq   

000000000000091d <bsearch>:
 91d:	48 83 ec 28          	sub    $0x28,%rsp

0000000000000921 <L16>:
 921:	48 89 7c 24 18       	mov    %rdi,0x18(%rsp)
 926:	48 89 74 24 08       	mov    %rsi,0x8(%rsp)
 92b:	48 89 54 24 10       	mov    %rdx,0x10(%rsp)
 930:	48 8b 7c 24 18       	mov    0x18(%rsp),%rdi
 935:	48 8b 44 24 08       	mov    0x8(%rsp),%rax
 93a:	48 39 c7             	cmp    %rax,%rdi
 93d:	74 65                	je     9a4 <L7>

000000000000093f <L8>:
 93f:	48 8b 44 24 18       	mov    0x18(%rsp),%rax
 944:	48 8b 7c 24 08       	mov    0x8(%rsp),%rdi
 949:	48 01 f8             	add    %rdi,%rax
 94c:	48 99                	cqto   
 94e:	48 c7 c7 02 00 00 00 	mov    $0x2,%rdi
 955:	48 f7 ff             	idiv   %rdi
 958:	48 89 44 24 20       	mov    %rax,0x20(%rsp)
 95d:	48 8b 44 24 30       	mov    0x30(%rsp),%rax
 962:	48 8b 78 f0          	mov    -0x10(%rax),%rdi
 966:	48 8b 44 24 20       	mov    0x20(%rsp),%rax
 96b:	48 c7 c6 08 00 00 00 	mov    $0x8,%rsi
 972:	48 f7 ee             	imul   %rsi
 975:	48 01 c7             	add    %rax,%rdi
 978:	48 8b 3f             	mov    (%rdi),%rdi
 97b:	48 8b 44 24 10       	mov    0x10(%rsp),%rax
 980:	48 39 c7             	cmp    %rax,%rdi
 983:	7c 26                	jl     9ab <L4>

0000000000000985 <L5>:
 985:	48 8b 44 24 30       	mov    0x30(%rsp),%rax
 98a:	48 89 04 24          	mov    %rax,(%rsp)
 98e:	48 8b 7c 24 18       	mov    0x18(%rsp),%rdi
 993:	48 8b 74 24 20       	mov    0x20(%rsp),%rsi
 998:	48 8b 54 24 10       	mov    0x10(%rsp),%rdx
 99d:	e8 7b ff ff ff       	callq  91d <bsearch>

00000000000009a2 <L6>:
 9a2:	eb 2a                	jmp    9ce <L15>

00000000000009a4 <L7>:
 9a4:	48 8b 44 24 18       	mov    0x18(%rsp),%rax
 9a9:	eb f7                	jmp    9a2 <L6>

00000000000009ab <L4>:
 9ab:	48 8b 44 24 30       	mov    0x30(%rsp),%rax
 9b0:	48 89 04 24          	mov    %rax,(%rsp)
 9b4:	48 8b 7c 24 20       	mov    0x20(%rsp),%rdi
 9b9:	48 83 c7 01          	add    $0x1,%rdi
 9bd:	48 8b 74 24 08       	mov    0x8(%rsp),%rsi
 9c2:	48 8b 54 24 10       	mov    0x10(%rsp),%rdx
 9c7:	e8 51 ff ff ff       	callq  91d <bsearch>
 9cc:	eb d4                	jmp    9a2 <L6>

00000000000009ce <L15>:
 9ce:	48 83 c4 28          	add    $0x28,%rsp
 9d2:	c3                   	retq   

00000000000009d3 <init>:
 9d3:	48 83 ec 18          	sub    $0x18,%rsp

00000000000009d7 <L18>:
 9d7:	48 c7 c0 00 00 00 00 	mov    $0x0,%rax
 9de:	48 89 44 24 10       	mov    %rax,0x10(%rsp)
 9e3:	48 8b 44 24 20       	mov    0x20(%rsp),%rax
 9e8:	48 8b 40 f8          	mov    -0x8(%rax),%rax
 9ec:	48 83 e8 01          	sub    $0x1,%rax
 9f0:	48 89 44 24 08       	mov    %rax,0x8(%rsp)
 9f5:	48 8b 44 24 20       	mov    0x20(%rsp),%rax
 9fa:	48 8b 40 f8          	mov    -0x8(%rax),%rax
 9fe:	48 83 e8 01          	sub    $0x1,%rax
 a02:	48 c7 c7 00 00 00 00 	mov    $0x0,%rdi
 a09:	48 39 c7             	cmp    %rax,%rdi
 a0c:	7e 09                	jle    a17 <L3>

0000000000000a0e <L1>:
 a0e:	48 c7 c0 00 00 00 00 	mov    $0x0,%rax
 a15:	eb 5e                	jmp    a75 <L17>

0000000000000a17 <L3>:
 a17:	48 8b 44 24 20       	mov    0x20(%rsp),%rax
 a1c:	48 8b 78 f0          	mov    -0x10(%rax),%rdi
 a20:	48 8b 44 24 10       	mov    0x10(%rsp),%rax
 a25:	48 c7 c6 08 00 00 00 	mov    $0x8,%rsi
 a2c:	48 f7 ee             	imul   %rsi
 a2f:	48 01 c7             	add    %rax,%rdi
 a32:	48 8b 44 24 10       	mov    0x10(%rsp),%rax
 a37:	48 c7 c6 02 00 00 00 	mov    $0x2,%rsi
 a3e:	48 f7 ee             	imul   %rsi
 a41:	48 83 c0 01          	add    $0x1,%rax
 a45:	48 89 07             	mov    %rax,(%rdi)
 a48:	48 8b 44 24 20       	mov    0x20(%rsp),%rax
 a4d:	48 89 04 24          	mov    %rax,(%rsp)
 a51:	e8 24 00 00 00       	callq  a7a <nop>
 a56:	48 8b 7c 24 10       	mov    0x10(%rsp),%rdi
 a5b:	48 8b 44 24 08       	mov    0x8(%rsp),%rax
 a60:	48 39 c7             	cmp    %rax,%rdi
 a63:	7d a9                	jge    a0e <L1>

0000000000000a65 <L2>:
 a65:	48 8b 44 24 10       	mov    0x10(%rsp),%rax
 a6a:	48 83 c0 01          	add    $0x1,%rax
 a6e:	48 89 44 24 10       	mov    %rax,0x10(%rsp)
 a73:	eb a2                	jmp    a17 <L3>

0000000000000a75 <L17>:
 a75:	48 83 c4 18          	add    $0x18,%rsp
 a79:	c3                   	retq   

0000000000000a7a <nop>:
 a7a:	48 83 ec 08          	sub    $0x8,%rsp

0000000000000a7e <L20>:
 a7e:	48 c7 c0 00 00 00 00 	mov    $0x0,%rax
 a85:	48 89 04 24          	mov    %rax,(%rsp)
 a89:	48 8d 3d 3a 05 00 00 	lea    0x53a(%rip),%rdi        # fca <L0>
 a90:	e8 2e 01 00 00       	callq  bc3 <print>
 a95:	eb 00                	jmp    a97 <L19>

0000000000000a97 <L19>:
 a97:	48 83 c4 08          	add    $0x8,%rsp
 a9b:	c3                   	retq   

0000000000000a9c <initArray>:
 a9c:	55                   	push   %rbp
 a9d:	48 89 e5             	mov    %rsp,%rbp
 aa0:	48 83 ec 20          	sub    $0x20,%rsp
 aa4:	89 7d ec             	mov    %edi,-0x14(%rbp)
 aa7:	89 75 e8             	mov    %esi,-0x18(%rbp)
 aaa:	8b 45 ec             	mov    -0x14(%rbp),%eax
 aad:	48 98                	cltq   
 aaf:	48 c1 e0 02          	shl    $0x2,%rax
 ab3:	48 89 c7             	mov    %rax,%rdi
 ab6:	e8 45 fc ff ff       	callq  700 <malloc@plt>
 abb:	48 89 45 f0          	mov    %rax,-0x10(%rbp)
 abf:	c7 45 fc 00 00 00 00 	movl   $0x0,-0x4(%rbp)
 ac6:	eb 1d                	jmp    ae5 <initArray+0x49>
 ac8:	8b 45 fc             	mov    -0x4(%rbp),%eax
 acb:	48 98                	cltq   
 acd:	48 8d 14 85 00 00 00 	lea    0x0(,%rax,4),%rdx
 ad4:	00 
 ad5:	48 8b 45 f0          	mov    -0x10(%rbp),%rax
 ad9:	48 01 c2             	add    %rax,%rdx
 adc:	8b 45 e8             	mov    -0x18(%rbp),%eax
 adf:	89 02                	mov    %eax,(%rdx)
 ae1:	83 45 fc 01          	addl   $0x1,-0x4(%rbp)
 ae5:	8b 45 fc             	mov    -0x4(%rbp),%eax
 ae8:	3b 45 ec             	cmp    -0x14(%rbp),%eax
 aeb:	7c db                	jl     ac8 <initArray+0x2c>
 aed:	48 8b 45 f0          	mov    -0x10(%rbp),%rax
 af1:	c9                   	leaveq 
 af2:	c3                   	retq   

0000000000000af3 <allocRecord>:
 af3:	55                   	push   %rbp
 af4:	48 89 e5             	mov    %rsp,%rbp
 af7:	48 83 ec 30          	sub    $0x30,%rsp
 afb:	89 7d dc             	mov    %edi,-0x24(%rbp)
 afe:	8b 45 dc             	mov    -0x24(%rbp),%eax
 b01:	48 98                	cltq   
 b03:	48 89 c7             	mov    %rax,%rdi
 b06:	e8 f5 fb ff ff       	callq  700 <malloc@plt>
 b0b:	48 89 45 e8          	mov    %rax,-0x18(%rbp)
 b0f:	48 8b 45 e8          	mov    -0x18(%rbp),%rax
 b13:	48 89 45 f0          	mov    %rax,-0x10(%rbp)
 b17:	c7 45 fc 00 00 00 00 	movl   $0x0,-0x4(%rbp)
 b1e:	eb 1b                	jmp    b3b <allocRecord+0x48>
 b20:	48 8b 45 f0          	mov    -0x10(%rbp),%rax
 b24:	48 8d 50 04          	lea    0x4(%rax),%rdx
 b28:	48 89 55 f0          	mov    %rdx,-0x10(%rbp)
 b2c:	c7 00 00 00 00 00    	movl   $0x0,(%rax)
 b32:	8b 45 fc             	mov    -0x4(%rbp),%eax
 b35:	83 c0 04             	add    $0x4,%eax
 b38:	89 45 fc             	mov    %eax,-0x4(%rbp)
 b3b:	8b 45 fc             	mov    -0x4(%rbp),%eax
 b3e:	3b 45 dc             	cmp    -0x24(%rbp),%eax
 b41:	7c dd                	jl     b20 <allocRecord+0x2d>
 b43:	48 8b 45 e8          	mov    -0x18(%rbp),%rax
 b47:	c9                   	leaveq 
 b48:	c3                   	retq   

0000000000000b49 <stringEqual>:
 b49:	55                   	push   %rbp
 b4a:	48 89 e5             	mov    %rsp,%rbp
 b4d:	48 89 7d e8          	mov    %rdi,-0x18(%rbp)
 b51:	48 89 75 e0          	mov    %rsi,-0x20(%rbp)
 b55:	48 8b 45 e8          	mov    -0x18(%rbp),%rax
 b59:	48 3b 45 e0          	cmp    -0x20(%rbp),%rax
 b5d:	75 07                	jne    b66 <stringEqual+0x1d>
 b5f:	b8 01 00 00 00       	mov    $0x1,%eax
 b64:	eb 5b                	jmp    bc1 <stringEqual+0x78>
 b66:	48 8b 45 e8          	mov    -0x18(%rbp),%rax
 b6a:	8b 10                	mov    (%rax),%edx
 b6c:	48 8b 45 e0          	mov    -0x20(%rbp),%rax
 b70:	8b 00                	mov    (%rax),%eax
 b72:	39 c2                	cmp    %eax,%edx
 b74:	74 07                	je     b7d <stringEqual+0x34>
 b76:	b8 00 00 00 00       	mov    $0x0,%eax
 b7b:	eb 44                	jmp    bc1 <stringEqual+0x78>
 b7d:	c7 45 fc 00 00 00 00 	movl   $0x0,-0x4(%rbp)
 b84:	eb 2b                	jmp    bb1 <stringEqual+0x68>
 b86:	48 8b 55 e8          	mov    -0x18(%rbp),%rdx
 b8a:	8b 45 fc             	mov    -0x4(%rbp),%eax
 b8d:	48 98                	cltq   
 b8f:	0f b6 4c 02 04       	movzbl 0x4(%rdx,%rax,1),%ecx
 b94:	48 8b 55 e0          	mov    -0x20(%rbp),%rdx
 b98:	8b 45 fc             	mov    -0x4(%rbp),%eax
 b9b:	48 98                	cltq   
 b9d:	0f b6 44 02 04       	movzbl 0x4(%rdx,%rax,1),%eax
 ba2:	38 c1                	cmp    %al,%cl
 ba4:	74 07                	je     bad <stringEqual+0x64>
 ba6:	b8 00 00 00 00       	mov    $0x0,%eax
 bab:	eb 14                	jmp    bc1 <stringEqual+0x78>
 bad:	83 45 fc 01          	addl   $0x1,-0x4(%rbp)
 bb1:	48 8b 45 e8          	mov    -0x18(%rbp),%rax
 bb5:	8b 00                	mov    (%rax),%eax
 bb7:	39 45 fc             	cmp    %eax,-0x4(%rbp)
 bba:	7c ca                	jl     b86 <stringEqual+0x3d>
 bbc:	b8 01 00 00 00       	mov    $0x1,%eax
 bc1:	5d                   	pop    %rbp
 bc2:	c3                   	retq   

0000000000000bc3 <print>:
 bc3:	55                   	push   %rbp
 bc4:	48 89 e5             	mov    %rsp,%rbp
 bc7:	48 83 ec 20          	sub    $0x20,%rsp
 bcb:	48 89 7d e8          	mov    %rdi,-0x18(%rbp)
 bcf:	48 8b 45 e8          	mov    -0x18(%rbp),%rax
 bd3:	48 83 c0 04          	add    $0x4,%rax
 bd7:	48 89 45 f0          	mov    %rax,-0x10(%rbp)
 bdb:	c7 45 fc 00 00 00 00 	movl   $0x0,-0x4(%rbp)
 be2:	eb 1a                	jmp    bfe <print+0x3b>
 be4:	48 8b 45 f0          	mov    -0x10(%rbp),%rax
 be8:	0f b6 00             	movzbl (%rax),%eax
 beb:	0f b6 c0             	movzbl %al,%eax
 bee:	89 c7                	mov    %eax,%edi
 bf0:	e8 eb fa ff ff       	callq  6e0 <putchar@plt>
 bf5:	83 45 fc 01          	addl   $0x1,-0x4(%rbp)
 bf9:	48 83 45 f0 01       	addq   $0x1,-0x10(%rbp)
 bfe:	48 8b 45 e8          	mov    -0x18(%rbp),%rax
 c02:	8b 00                	mov    (%rax),%eax
 c04:	39 45 fc             	cmp    %eax,-0x4(%rbp)
 c07:	7c db                	jl     be4 <print+0x21>
 c09:	90                   	nop
 c0a:	c9                   	leaveq 
 c0b:	c3                   	retq   

0000000000000c0c <printi>:
 c0c:	55                   	push   %rbp
 c0d:	48 89 e5             	mov    %rsp,%rbp
 c10:	48 83 ec 10          	sub    $0x10,%rsp
 c14:	89 7d fc             	mov    %edi,-0x4(%rbp)
 c17:	8b 45 fc             	mov    -0x4(%rbp),%eax
 c1a:	89 c6                	mov    %eax,%esi
 c1c:	48 8d 3d ad 03 00 00 	lea    0x3ad(%rip),%rdi        # fd0 <L0+0x6>
 c23:	b8 00 00 00 00       	mov    $0x0,%eax
 c28:	e8 c3 fa ff ff       	callq  6f0 <printf@plt>
 c2d:	90                   	nop
 c2e:	c9                   	leaveq 
 c2f:	c3                   	retq   

0000000000000c30 <flush>:
 c30:	55                   	push   %rbp
 c31:	48 89 e5             	mov    %rsp,%rbp
 c34:	48 8b 05 25 14 20 00 	mov    0x201425(%rip),%rax        # 202060 <stdout@@GLIBC_2.2.5>
 c3b:	48 89 c7             	mov    %rax,%rdi
 c3e:	e8 cd fa ff ff       	callq  710 <fflush@plt>
 c43:	90                   	nop
 c44:	5d                   	pop    %rbp
 c45:	c3                   	retq   

0000000000000c46 <main>:
 c46:	55                   	push   %rbp
 c47:	48 89 e5             	mov    %rsp,%rbp
 c4a:	48 83 ec 10          	sub    $0x10,%rsp
 c4e:	c7 45 fc 00 00 00 00 	movl   $0x0,-0x4(%rbp)
 c55:	eb 3b                	jmp    c92 <main+0x4c>
 c57:	8b 45 fc             	mov    -0x4(%rbp),%eax
 c5a:	48 98                	cltq   
 c5c:	48 8d 14 c5 00 00 00 	lea    0x0(,%rax,8),%rdx
 c63:	00 
 c64:	48 8d 05 35 14 20 00 	lea    0x201435(%rip),%rax        # 2020a0 <consts>
 c6b:	c7 04 02 01 00 00 00 	movl   $0x1,(%rdx,%rax,1)
 c72:	8b 45 fc             	mov    -0x4(%rbp),%eax
 c75:	89 c1                	mov    %eax,%ecx
 c77:	8b 45 fc             	mov    -0x4(%rbp),%eax
 c7a:	48 98                	cltq   
 c7c:	48 8d 14 c5 00 00 00 	lea    0x0(,%rax,8),%rdx
 c83:	00 
 c84:	48 8d 05 19 14 20 00 	lea    0x201419(%rip),%rax        # 2020a4 <consts+0x4>
 c8b:	88 0c 02             	mov    %cl,(%rdx,%rax,1)
 c8e:	83 45 fc 01          	addl   $0x1,-0x4(%rbp)
 c92:	81 7d fc ff 00 00 00 	cmpl   $0xff,-0x4(%rbp)
 c99:	7e bc                	jle    c57 <main+0x11>
 c9b:	bf 00 00 00 00       	mov    $0x0,%edi
 ca0:	b8 00 00 00 00       	mov    $0x0,%eax
 ca5:	e8 b0 fb ff ff       	callq  85a <tigermain>
 caa:	c9                   	leaveq 
 cab:	c3                   	retq   

0000000000000cac <ord>:
 cac:	55                   	push   %rbp
 cad:	48 89 e5             	mov    %rsp,%rbp
 cb0:	48 89 7d f8          	mov    %rdi,-0x8(%rbp)
 cb4:	48 8b 45 f8          	mov    -0x8(%rbp),%rax
 cb8:	8b 00                	mov    (%rax),%eax
 cba:	85 c0                	test   %eax,%eax
 cbc:	75 07                	jne    cc5 <ord+0x19>
 cbe:	b8 ff ff ff ff       	mov    $0xffffffff,%eax
 cc3:	eb 0b                	jmp    cd0 <ord+0x24>
 cc5:	48 8b 45 f8          	mov    -0x8(%rbp),%rax
 cc9:	0f b6 40 04          	movzbl 0x4(%rax),%eax
 ccd:	0f b6 c0             	movzbl %al,%eax
 cd0:	5d                   	pop    %rbp
 cd1:	c3                   	retq   

0000000000000cd2 <chr>:
 cd2:	55                   	push   %rbp
 cd3:	48 89 e5             	mov    %rsp,%rbp
 cd6:	48 83 ec 10          	sub    $0x10,%rsp
 cda:	89 7d fc             	mov    %edi,-0x4(%rbp)
 cdd:	83 7d fc 00          	cmpl   $0x0,-0x4(%rbp)
 ce1:	78 09                	js     cec <chr+0x1a>
 ce3:	81 7d fc ff 00 00 00 	cmpl   $0xff,-0x4(%rbp)
 cea:	7e 20                	jle    d0c <chr+0x3a>
 cec:	8b 45 fc             	mov    -0x4(%rbp),%eax
 cef:	89 c6                	mov    %eax,%esi
 cf1:	48 8d 3d db 02 00 00 	lea    0x2db(%rip),%rdi        # fd3 <L0+0x9>
 cf8:	b8 00 00 00 00       	mov    $0x0,%eax
 cfd:	e8 ee f9 ff ff       	callq  6f0 <printf@plt>
 d02:	bf 01 00 00 00       	mov    $0x1,%edi
 d07:	e8 24 fa ff ff       	callq  730 <exit@plt>
 d0c:	8b 45 fc             	mov    -0x4(%rbp),%eax
 d0f:	48 98                	cltq   
 d11:	48 8d 14 c5 00 00 00 	lea    0x0(,%rax,8),%rdx
 d18:	00 
 d19:	48 8d 05 80 13 20 00 	lea    0x201380(%rip),%rax        # 2020a0 <consts>
 d20:	48 01 d0             	add    %rdx,%rax
 d23:	c9                   	leaveq 
 d24:	c3                   	retq   

0000000000000d25 <size>:
 d25:	55                   	push   %rbp
 d26:	48 89 e5             	mov    %rsp,%rbp
 d29:	48 89 7d f8          	mov    %rdi,-0x8(%rbp)
 d2d:	48 8b 45 f8          	mov    -0x8(%rbp),%rax
 d31:	8b 00                	mov    (%rax),%eax
 d33:	5d                   	pop    %rbp
 d34:	c3                   	retq   

0000000000000d35 <substring>:
 d35:	55                   	push   %rbp
 d36:	48 89 e5             	mov    %rsp,%rbp
 d39:	48 83 ec 20          	sub    $0x20,%rsp
 d3d:	48 89 7d e8          	mov    %rdi,-0x18(%rbp)
 d41:	89 75 e4             	mov    %esi,-0x1c(%rbp)
 d44:	89 55 e0             	mov    %edx,-0x20(%rbp)
 d47:	83 7d e4 00          	cmpl   $0x0,-0x1c(%rbp)
 d4b:	78 12                	js     d5f <substring+0x2a>
 d4d:	8b 55 e4             	mov    -0x1c(%rbp),%edx
 d50:	8b 45 e0             	mov    -0x20(%rbp),%eax
 d53:	01 c2                	add    %eax,%edx
 d55:	48 8b 45 e8          	mov    -0x18(%rbp),%rax
 d59:	8b 00                	mov    (%rax),%eax
 d5b:	39 c2                	cmp    %eax,%edx
 d5d:	7e 29                	jle    d88 <substring+0x53>
 d5f:	48 8b 45 e8          	mov    -0x18(%rbp),%rax
 d63:	8b 00                	mov    (%rax),%eax
 d65:	8b 4d e0             	mov    -0x20(%rbp),%ecx
 d68:	8b 55 e4             	mov    -0x1c(%rbp),%edx
 d6b:	89 c6                	mov    %eax,%esi
 d6d:	48 8d 3d 7c 02 00 00 	lea    0x27c(%rip),%rdi        # ff0 <L0+0x26>
 d74:	b8 00 00 00 00       	mov    $0x0,%eax
 d79:	e8 72 f9 ff ff       	callq  6f0 <printf@plt>
 d7e:	bf 01 00 00 00       	mov    $0x1,%edi
 d83:	e8 a8 f9 ff ff       	callq  730 <exit@plt>
 d88:	83 7d e0 01          	cmpl   $0x1,-0x20(%rbp)
 d8c:	75 25                	jne    db3 <substring+0x7e>
 d8e:	48 8b 55 e8          	mov    -0x18(%rbp),%rdx
 d92:	8b 45 e4             	mov    -0x1c(%rbp),%eax
 d95:	48 98                	cltq   
 d97:	0f b6 44 02 04       	movzbl 0x4(%rdx,%rax,1),%eax
 d9c:	0f b6 c0             	movzbl %al,%eax
 d9f:	48 8d 14 c5 00 00 00 	lea    0x0(,%rax,8),%rdx
 da6:	00 
 da7:	48 8d 05 f2 12 20 00 	lea    0x2012f2(%rip),%rax        # 2020a0 <consts>
 dae:	48 01 d0             	add    %rdx,%rax
 db1:	eb 57                	jmp    e0a <substring+0xd5>
 db3:	8b 45 e0             	mov    -0x20(%rbp),%eax
 db6:	48 98                	cltq   
 db8:	48 83 c0 04          	add    $0x4,%rax
 dbc:	48 89 c7             	mov    %rax,%rdi
 dbf:	e8 3c f9 ff ff       	callq  700 <malloc@plt>
 dc4:	48 89 45 f0          	mov    %rax,-0x10(%rbp)
 dc8:	48 8b 45 f0          	mov    -0x10(%rbp),%rax
 dcc:	8b 55 e0             	mov    -0x20(%rbp),%edx
 dcf:	89 10                	mov    %edx,(%rax)
 dd1:	c7 45 fc 00 00 00 00 	movl   $0x0,-0x4(%rbp)
 dd8:	eb 24                	jmp    dfe <substring+0xc9>
 dda:	8b 55 e4             	mov    -0x1c(%rbp),%edx
 ddd:	8b 45 fc             	mov    -0x4(%rbp),%eax
 de0:	01 d0                	add    %edx,%eax
 de2:	48 8b 55 e8          	mov    -0x18(%rbp),%rdx
 de6:	48 98                	cltq   
 de8:	0f b6 4c 02 04       	movzbl 0x4(%rdx,%rax,1),%ecx
 ded:	48 8b 55 f0          	mov    -0x10(%rbp),%rdx
 df1:	8b 45 fc             	mov    -0x4(%rbp),%eax
 df4:	48 98                	cltq   
 df6:	88 4c 02 04          	mov    %cl,0x4(%rdx,%rax,1)
 dfa:	83 45 fc 01          	addl   $0x1,-0x4(%rbp)
 dfe:	8b 45 fc             	mov    -0x4(%rbp),%eax
 e01:	3b 45 e0             	cmp    -0x20(%rbp),%eax
 e04:	7c d4                	jl     dda <substring+0xa5>
 e06:	48 8b 45 f0          	mov    -0x10(%rbp),%rax
 e0a:	c9                   	leaveq 
 e0b:	c3                   	retq   

0000000000000e0c <concat>:
 e0c:	55                   	push   %rbp
 e0d:	48 89 e5             	mov    %rsp,%rbp
 e10:	48 83 ec 20          	sub    $0x20,%rsp
 e14:	48 89 7d e8          	mov    %rdi,-0x18(%rbp)
 e18:	48 89 75 e0          	mov    %rsi,-0x20(%rbp)
 e1c:	48 8b 45 e8          	mov    -0x18(%rbp),%rax
 e20:	8b 00                	mov    (%rax),%eax
 e22:	85 c0                	test   %eax,%eax
 e24:	75 09                	jne    e2f <concat+0x23>
 e26:	48 8b 45 e0          	mov    -0x20(%rbp),%rax
 e2a:	e9 b6 00 00 00       	jmpq   ee5 <concat+0xd9>
 e2f:	48 8b 45 e0          	mov    -0x20(%rbp),%rax
 e33:	8b 00                	mov    (%rax),%eax
 e35:	85 c0                	test   %eax,%eax
 e37:	75 09                	jne    e42 <concat+0x36>
 e39:	48 8b 45 e8          	mov    -0x18(%rbp),%rax
 e3d:	e9 a3 00 00 00       	jmpq   ee5 <concat+0xd9>
 e42:	48 8b 45 e8          	mov    -0x18(%rbp),%rax
 e46:	8b 10                	mov    (%rax),%edx
 e48:	48 8b 45 e0          	mov    -0x20(%rbp),%rax
 e4c:	8b 00                	mov    (%rax),%eax
 e4e:	01 d0                	add    %edx,%eax
 e50:	89 45 f8             	mov    %eax,-0x8(%rbp)
 e53:	8b 45 f8             	mov    -0x8(%rbp),%eax
 e56:	48 98                	cltq   
 e58:	48 83 c0 04          	add    $0x4,%rax
 e5c:	48 89 c7             	mov    %rax,%rdi
 e5f:	e8 9c f8 ff ff       	callq  700 <malloc@plt>
 e64:	48 89 45 f0          	mov    %rax,-0x10(%rbp)
 e68:	48 8b 45 f0          	mov    -0x10(%rbp),%rax
 e6c:	8b 55 f8             	mov    -0x8(%rbp),%edx
 e6f:	89 10                	mov    %edx,(%rax)
 e71:	c7 45 fc 00 00 00 00 	movl   $0x0,-0x4(%rbp)
 e78:	eb 1f                	jmp    e99 <concat+0x8d>
 e7a:	48 8b 55 e8          	mov    -0x18(%rbp),%rdx
 e7e:	8b 45 fc             	mov    -0x4(%rbp),%eax
 e81:	48 98                	cltq   
 e83:	0f b6 4c 02 04       	movzbl 0x4(%rdx,%rax,1),%ecx
 e88:	48 8b 55 f0          	mov    -0x10(%rbp),%rdx
 e8c:	8b 45 fc             	mov    -0x4(%rbp),%eax
 e8f:	48 98                	cltq   
 e91:	88 4c 02 04          	mov    %cl,0x4(%rdx,%rax,1)
 e95:	83 45 fc 01          	addl   $0x1,-0x4(%rbp)
 e99:	48 8b 45 e8          	mov    -0x18(%rbp),%rax
 e9d:	8b 00                	mov    (%rax),%eax
 e9f:	39 45 fc             	cmp    %eax,-0x4(%rbp)
 ea2:	7c d6                	jl     e7a <concat+0x6e>
 ea4:	c7 45 fc 00 00 00 00 	movl   $0x0,-0x4(%rbp)
 eab:	eb 29                	jmp    ed6 <concat+0xca>
 ead:	48 8b 45 e8          	mov    -0x18(%rbp),%rax
 eb1:	8b 10                	mov    (%rax),%edx
 eb3:	8b 45 fc             	mov    -0x4(%rbp),%eax
 eb6:	8d 34 02             	lea    (%rdx,%rax,1),%esi
 eb9:	48 8b 55 e0          	mov    -0x20(%rbp),%rdx
 ebd:	8b 45 fc             	mov    -0x4(%rbp),%eax
 ec0:	48 98                	cltq   
 ec2:	0f b6 4c 02 04       	movzbl 0x4(%rdx,%rax,1),%ecx
 ec7:	48 8b 55 f0          	mov    -0x10(%rbp),%rdx
 ecb:	48 63 c6             	movslq %esi,%rax
 ece:	88 4c 02 04          	mov    %cl,0x4(%rdx,%rax,1)
 ed2:	83 45 fc 01          	addl   $0x1,-0x4(%rbp)
 ed6:	48 8b 45 e0          	mov    -0x20(%rbp),%rax
 eda:	8b 00                	mov    (%rax),%eax
 edc:	39 45 fc             	cmp    %eax,-0x4(%rbp)
 edf:	7c cc                	jl     ead <concat+0xa1>
 ee1:	48 8b 45 f0          	mov    -0x10(%rbp),%rax
 ee5:	c9                   	leaveq 
 ee6:	c3                   	retq   

0000000000000ee7 <not>:
 ee7:	55                   	push   %rbp
 ee8:	48 89 e5             	mov    %rsp,%rbp
 eeb:	89 7d fc             	mov    %edi,-0x4(%rbp)
 eee:	83 7d fc 00          	cmpl   $0x0,-0x4(%rbp)
 ef2:	0f 94 c0             	sete   %al
 ef5:	0f b6 c0             	movzbl %al,%eax
 ef8:	5d                   	pop    %rbp
 ef9:	c3                   	retq   

0000000000000efa <__wrap_getchar>:
 efa:	55                   	push   %rbp
 efb:	48 89 e5             	mov    %rsp,%rbp
 efe:	48 83 ec 10          	sub    $0x10,%rsp
 f02:	48 8b 05 67 11 20 00 	mov    0x201167(%rip),%rax        # 202070 <stdin@@GLIBC_2.2.5>
 f09:	48 89 c7             	mov    %rax,%rdi
 f0c:	e8 0f f8 ff ff       	callq  720 <_IO_getc@plt>
 f11:	89 45 fc             	mov    %eax,-0x4(%rbp)
 f14:	83 7d fc ff          	cmpl   $0xffffffff,-0x4(%rbp)
 f18:	75 09                	jne    f23 <__wrap_getchar+0x29>
 f1a:	48 8d 05 5f 11 20 00 	lea    0x20115f(%rip),%rax        # 202080 <empty>
 f21:	eb 17                	jmp    f3a <__wrap_getchar+0x40>
 f23:	8b 45 fc             	mov    -0x4(%rbp),%eax
 f26:	48 98                	cltq   
 f28:	48 8d 14 c5 00 00 00 	lea    0x0(,%rax,8),%rdx
 f2f:	00 
 f30:	48 8d 05 69 11 20 00 	lea    0x201169(%rip),%rax        # 2020a0 <consts>
 f37:	48 01 d0             	add    %rdx,%rax
 f3a:	c9                   	leaveq 
 f3b:	c3                   	retq   
 f3c:	0f 1f 40 00          	nopl   0x0(%rax)

0000000000000f40 <__libc_csu_init>:
 f40:	41 57                	push   %r15
 f42:	41 56                	push   %r14
 f44:	49 89 d7             	mov    %rdx,%r15
 f47:	41 55                	push   %r13
 f49:	41 54                	push   %r12
 f4b:	4c 8d 25 96 0e 20 00 	lea    0x200e96(%rip),%r12        # 201de8 <__frame_dummy_init_array_entry>
 f52:	55                   	push   %rbp
 f53:	48 8d 2d 96 0e 20 00 	lea    0x200e96(%rip),%rbp        # 201df0 <__init_array_end>
 f5a:	53                   	push   %rbx
 f5b:	41 89 fd             	mov    %edi,%r13d
 f5e:	49 89 f6             	mov    %rsi,%r14
 f61:	4c 29 e5             	sub    %r12,%rbp
 f64:	48 83 ec 08          	sub    $0x8,%rsp
 f68:	48 c1 fd 03          	sar    $0x3,%rbp
 f6c:	e8 3f f7 ff ff       	callq  6b0 <_init>
 f71:	48 85 ed             	test   %rbp,%rbp
 f74:	74 20                	je     f96 <__libc_csu_init+0x56>
 f76:	31 db                	xor    %ebx,%ebx
 f78:	0f 1f 84 00 00 00 00 	nopl   0x0(%rax,%rax,1)
 f7f:	00 
 f80:	4c 89 fa             	mov    %r15,%rdx
 f83:	4c 89 f6             	mov    %r14,%rsi
 f86:	44 89 ef             	mov    %r13d,%edi
 f89:	41 ff 14 dc          	callq  *(%r12,%rbx,8)
 f8d:	48 83 c3 01          	add    $0x1,%rbx
 f91:	48 39 dd             	cmp    %rbx,%rbp
 f94:	75 ea                	jne    f80 <__libc_csu_init+0x40>
 f96:	48 83 c4 08          	add    $0x8,%rsp
 f9a:	5b                   	pop    %rbx
 f9b:	5d                   	pop    %rbp
 f9c:	41 5c                	pop    %r12
 f9e:	41 5d                	pop    %r13
 fa0:	41 5e                	pop    %r14
 fa2:	41 5f                	pop    %r15
 fa4:	c3                   	retq   
 fa5:	90                   	nop
 fa6:	66 2e 0f 1f 84 00 00 	nopw   %cs:0x0(%rax,%rax,1)
 fad:	00 00 00 

0000000000000fb0 <__libc_csu_fini>:
 fb0:	f3 c3                	repz retq 

Disassembly of section .fini:

0000000000000fb4 <_fini>:
 fb4:	48 83 ec 08          	sub    $0x8,%rsp
 fb8:	48 83 c4 08          	add    $0x8,%rsp
 fbc:	c3                   	retq   
